target datalayout = "e-m:e-p270:32:32-p271:32:32-p272:64:64-i64:64-i128:128-f80:128-n8:16:32:64-S128"
target triple = "x86_64-pc-linux-gnu"

@gctx = internal global ptr null, align 8
@cctx = internal global ptr null, align 8
@mdata = internal global ptr null, align 8
@mctx = internal global ptr null, align 8
@pcre2_init_ok = internal global i8 0, align 1
@jit_stack = internal global ptr null, align 8

; Function Attrs: nounwind uwtable
define internal void @php_pcre_init_pcre2(i8 noundef zeroext %0) #0 {
  %2 = alloca i8, align 1
  store i8 %0, ptr %2, align 1, !tbaa !45
  %3 = load ptr, ptr @gctx, align 8, !tbaa !51
  %4 = icmp ne ptr %3, null
  br i1 %4, label %11, label %5

5:                                                ; preds = %1
  %6 = call ptr @php_pcre2_general_context_create(ptr noundef @php_pcre_malloc, ptr noundef @php_pcre_free, ptr noundef null)
  store ptr %6, ptr @gctx, align 8, !tbaa !51
  %7 = load ptr, ptr @gctx, align 8, !tbaa !51
  %8 = icmp ne ptr %7, null
  br i1 %8, label %10, label %9

9:                                                ; preds = %5
  store i8 0, ptr @pcre2_init_ok, align 1, !tbaa !45
  br label %58

10:                                               ; preds = %5
  br label %11

11:                                               ; preds = %10, %1
  %12 = load ptr, ptr @cctx, align 8, !tbaa !53
  %13 = icmp ne ptr %12, null
  br i1 %13, label %21, label %14

14:                                               ; preds = %11
  %15 = load ptr, ptr @gctx, align 8, !tbaa !51
  %16 = call ptr @php_pcre2_compile_context_create(ptr noundef %15)
  store ptr %16, ptr @cctx, align 8, !tbaa !53
  %17 = load ptr, ptr @cctx, align 8, !tbaa !53
  %18 = icmp ne ptr %17, null
  br i1 %18, label %20, label %19

19:                                               ; preds = %14
  store i8 0, ptr @pcre2_init_ok, align 1, !tbaa !45
  br label %58

20:                                               ; preds = %14
  br label %21

21:                                               ; preds = %20, %11
  %22 = load ptr, ptr @cctx, align 8, !tbaa !53
  %23 = call i32 @php_pcre2_set_compile_extra_options(ptr noundef %22, i32 noundef 64)
  %24 = load ptr, ptr @mctx, align 8, !tbaa !104
  %25 = icmp ne ptr %24, null
  br i1 %25, label %33, label %26

26:                                               ; preds = %21
  %27 = load ptr, ptr @gctx, align 8, !tbaa !51
  %28 = call ptr @php_pcre2_match_context_create(ptr noundef %27)
  store ptr %28, ptr @mctx, align 8, !tbaa !104
  %29 = load ptr, ptr @mctx, align 8, !tbaa !104
  %30 = icmp ne ptr %29, null
  br i1 %30, label %32, label %31

31:                                               ; preds = %26
  store i8 0, ptr @pcre2_init_ok, align 1, !tbaa !45
  br label %58

32:                                               ; preds = %26
  br label %33

33:                                               ; preds = %32, %21
  %34 = load i8, ptr %2, align 1, !tbaa !45
  %35 = zext i8 %34 to i32
  %36 = icmp ne i32 %35, 0
  br i1 %36, label %37, label %47

37:                                               ; preds = %33
  %38 = load ptr, ptr @jit_stack, align 8, !tbaa !155
  %39 = icmp ne ptr %38, null
  br i1 %39, label %47, label %40

40:                                               ; preds = %37
  %41 = load ptr, ptr @gctx, align 8, !tbaa !51
  %42 = call ptr @php_pcre2_jit_stack_create(i64 noundef 32768, i64 noundef 196608, ptr noundef %41)
  store ptr %42, ptr @jit_stack, align 8, !tbaa !155
  %43 = load ptr, ptr @jit_stack, align 8, !tbaa !155
  %44 = icmp ne ptr %43, null
  br i1 %44, label %46, label %45

45:                                               ; preds = %40
  store i8 0, ptr @pcre2_init_ok, align 1, !tbaa !45
  br label %58

46:                                               ; preds = %40
  br label %47

47:                                               ; preds = %46, %37, %33
  %48 = load ptr, ptr @mdata, align 8, !tbaa !73
  %49 = icmp ne ptr %48, null
  br i1 %49, label %57, label %50

50:                                               ; preds = %47
  %51 = load ptr, ptr @gctx, align 8, !tbaa !51
  %52 = call ptr @php_pcre2_match_data_create(i32 noundef 32, ptr noundef %51)
  store ptr %52, ptr @mdata, align 8, !tbaa !73
  %53 = load ptr, ptr @mdata, align 8, !tbaa !73
  %54 = icmp ne ptr %53, null
  br i1 %54, label %56, label %55

55:                                               ; preds = %50
  store i8 0, ptr @pcre2_init_ok, align 1, !tbaa !45
  br label %58

56:                                               ; preds = %50
  br label %57

57:                                               ; preds = %56, %47
  store i8 1, ptr @pcre2_init_ok, align 1, !tbaa !45
  br label %58

58:                                               ; preds = %57, %55, %45, %31, %19, %9
  ret void
}