; Function Attrs: nounwind uwtable
define internal fastcc void @php_pcre_init_pcre2(i8 noundef zeroext range(i8 0, 2) %0) unnamed_addr #0 {
  %2 = load ptr, ptr @gctx, align 8, !tbaa !46
  %.not = icmp eq ptr %2, null
  br i1 %.not, label %3, label %5

3:                                                ; preds = %1
  %4 = tail call ptr @php_pcre2_general_context_create(ptr noundef nonnull @php_pcre_malloc, ptr noundef nonnull @php_pcre_free, ptr noundef null) #24
  store ptr %4, ptr @gctx, align 8, !tbaa !46
  %.not2 = icmp eq ptr %4, null
  br i1 %.not2, label %30, label %5

5:                                                ; preds = %3, %1
  %6 = phi ptr [ %4, %3 ], [ %2, %1 ]
  %7 = load ptr, ptr @cctx, align 8, !tbaa !49
  %.not3 = icmp eq ptr %7, null
  br i1 %.not3, label %8, label %10

8:                                                ; preds = %5
  %9 = tail call ptr @php_pcre2_compile_context_create(ptr noundef nonnull %6) #24
  store ptr %9, ptr @cctx, align 8, !tbaa !49
  %.not4 = icmp eq ptr %9, null
  br i1 %.not4, label %30, label %10

10:                                               ; preds = %8, %5
  %11 = phi ptr [ %9, %8 ], [ %7, %5 ]
  %12 = tail call i32 @php_pcre2_set_compile_extra_options(ptr noundef nonnull %11, i32 noundef 64) #24
  %13 = load ptr, ptr @mctx, align 8, !tbaa !94
  %.not5 = icmp eq ptr %13, null
  br i1 %.not5, label %14, label %17

14:                                               ; preds = %10
  %15 = load ptr, ptr @gctx, align 8, !tbaa !46
  %16 = tail call ptr @php_pcre2_match_context_create(ptr noundef %15) #24
  store ptr %16, ptr @mctx, align 8, !tbaa !94
  %.not6 = icmp eq ptr %16, null
  br i1 %.not6, label %30, label %17

17:                                               ; preds = %14, %10
  %18 = icmp eq i8 %0, 0
  %19 = load ptr, ptr @jit_stack, align 8
  %20 = icmp ne ptr %19, null
  %or.cond = select i1 %18, i1 true, i1 %20
  br i1 %or.cond, label %24, label %21

21:                                               ; preds = %17
  %22 = load ptr, ptr @gctx, align 8, !tbaa !46
  %23 = tail call ptr @php_pcre2_jit_stack_create(i64 noundef 32768, i64 noundef 196608, ptr noundef %22) #24
  store ptr %23, ptr @jit_stack, align 8, !tbaa !121
  %.not7 = icmp eq ptr %23, null
  br i1 %.not7, label %30, label %24

24:                                               ; preds = %21, %17
  %25 = load ptr, ptr @mdata, align 8, !tbaa !66
  %.not8 = icmp eq ptr %25, null
  br i1 %.not8, label %26, label %29

26:                                               ; preds = %24
  %27 = load ptr, ptr @gctx, align 8, !tbaa !46
  %28 = tail call ptr @php_pcre2_match_data_create(i32 noundef 32, ptr noundef %27) #24
  store ptr %28, ptr @mdata, align 8, !tbaa !66
  %.not9 = icmp eq ptr %28, null
  br i1 %.not9, label %30, label %29

29:                                               ; preds = %26, %24
  br label %30

30:                                               ; preds = %26, %21, %14, %8, %3, %29
  %.sink = phi i1 [ true, %29 ], [ false, %3 ], [ false, %8 ], [ false, %14 ], [ false, %21 ], [ false, %26 ]
  store i1 %.sink, ptr @pcre2_init_ok, align 1
  ret void
}